target datalayout = "e-m:e-p270:32:32-p271:32:32-p272:64:64-i64:64-i128:128-f80:128-n8:16:32:64-S128"
target triple = "x86_64-pc-linux-gnu"

%"class.gmx::AtomsBuilder" = type { ptr, ptr, i32, i32, i32, i32 }
%struct.t_atoms = type { i32, ptr, ptr, ptr, ptr, i32, ptr, ptr, i8, i8, i8, i8, i8 }

@.str = private unnamed_addr constant [13 x i8] c"atoms_->atom\00", align 1
@.str.1 = private unnamed_addr constant [131 x i8] c"generated/home/dtcxzyw/WorkSpace/Projects/compilers/llvm-opt-benchmark/bench/gromacs/gromacs/src/gromacs/topology/atomsbuilder.cpp\00", align 1
@.str.2 = private unnamed_addr constant [17 x i8] c"atoms_->atomname\00", align 1
@.str.3 = private unnamed_addr constant [16 x i8] c"atoms_->resinfo\00", align 1
@.str.4 = private unnamed_addr constant [16 x i8] c"atoms_->pdbinfo\00", align 1

; Function Attrs: inlinehint mustprogress uwtable
define internal void @_ZL15gmx_srenew_implI9t_pdbinfoEvPKcS2_iRPT_m(ptr noundef %0, ptr noundef %1, i32 noundef %2, ptr noundef nonnull align 8 dereferenceable(8) %3, i64 noundef %4) #3 {
  %6 = alloca ptr, align 8
  %7 = alloca ptr, align 8
  %8 = alloca i32, align 4
  %9 = alloca ptr, align 8
  %10 = alloca i64, align 8
  store ptr %0, ptr %6, align 8, !tbaa !36
  store ptr %1, ptr %7, align 8, !tbaa !36
  store i32 %2, ptr %8, align 4, !tbaa !38
  store ptr %3, ptr %9, align 8, !tbaa !52
  store i64 %4, ptr %10, align 8, !tbaa !42
  %11 = load ptr, ptr %6, align 8, !tbaa !36
  %12 = load ptr, ptr %7, align 8, !tbaa !36
  %13 = load i32, ptr %8, align 4, !tbaa !38
  %14 = load ptr, ptr %9, align 8, !tbaa !52
  %15 = load ptr, ptr %14, align 8, !tbaa !54
  %16 = load i64, ptr %10, align 8, !tbaa !42
  %17 = call noundef ptr @_Z12save_reallocPKcS0_iPvmm(ptr noundef %11, ptr noundef %12, i32 noundef %13, ptr noundef %15, i64 noundef %16, i64 noundef 52)
  %18 = load ptr, ptr %9, align 8, !tbaa !52
  store ptr %17, ptr %18, align 8, !tbaa !54
  ret void
}

; Function Attrs: inlinehint mustprogress uwtable
define internal void @_ZL15gmx_srenew_implI9t_resinfoEvPKcS2_iRPT_m(ptr noundef %0, ptr noundef %1, i32 noundef %2, ptr noundef nonnull align 8 dereferenceable(8) %3, i64 noundef %4) #3 {
  %6 = alloca ptr, align 8
  %7 = alloca ptr, align 8
  %8 = alloca i32, align 4
  %9 = alloca ptr, align 8
  %10 = alloca i64, align 8
  store ptr %0, ptr %6, align 8, !tbaa !36
  store ptr %1, ptr %7, align 8, !tbaa !36
  store i32 %2, ptr %8, align 4, !tbaa !38
  store ptr %3, ptr %9, align 8, !tbaa !49
  store i64 %4, ptr %10, align 8, !tbaa !42
  %11 = load ptr, ptr %6, align 8, !tbaa !36
  %12 = load ptr, ptr %7, align 8, !tbaa !36
  %13 = load i32, ptr %8, align 4, !tbaa !38
  %14 = load ptr, ptr %9, align 8, !tbaa !49
  %15 = load ptr, ptr %14, align 8, !tbaa !51
  %16 = load i64, ptr %10, align 8, !tbaa !42
  %17 = call noundef ptr @_Z12save_reallocPKcS0_iPvmm(ptr noundef %11, ptr noundef %12, i32 noundef %13, ptr noundef %15, i64 noundef %16, i64 noundef 32)
  %18 = load ptr, ptr %9, align 8, !tbaa !49
  store ptr %17, ptr %18, align 8, !tbaa !51
  ret void
}

; Function Attrs: inlinehint mustprogress uwtable
define internal void @_ZL15gmx_srenew_implIPPcEvPKcS3_iRPT_m(ptr noundef %0, ptr noundef %1, i32 noundef %2, ptr noundef nonnull align 8 dereferenceable(8) %3, i64 noundef %4) #3 {
  %6 = alloca ptr, align 8
  %7 = alloca ptr, align 8
  %8 = alloca i32, align 4
  %9 = alloca ptr, align 8
  %10 = alloca i64, align 8
  store ptr %0, ptr %6, align 8, !tbaa !36
  store ptr %1, ptr %7, align 8, !tbaa !36
  store i32 %2, ptr %8, align 4, !tbaa !38
  store ptr %3, ptr %9, align 8, !tbaa !45
  store i64 %4, ptr %10, align 8, !tbaa !42
  %11 = load ptr, ptr %6, align 8, !tbaa !36
  %12 = load ptr, ptr %7, align 8, !tbaa !36
  %13 = load i32, ptr %8, align 4, !tbaa !38
  %14 = load ptr, ptr %9, align 8, !tbaa !45
  %15 = load ptr, ptr %14, align 8, !tbaa !48
  %16 = load i64, ptr %10, align 8, !tbaa !42
  %17 = call noundef ptr @_Z12save_reallocPKcS0_iPvmm(ptr noundef %11, ptr noundef %12, i32 noundef %13, ptr noundef %15, i64 noundef %16, i64 noundef 8)
  %18 = load ptr, ptr %9, align 8, !tbaa !45
  store ptr %17, ptr %18, align 8, !tbaa !48
  ret void
}

; Function Attrs: inlinehint mustprogress uwtable
define internal void @_ZL15gmx_srenew_implI6t_atomEvPKcS2_iRPT_m(ptr noundef %0, ptr noundef %1, i32 noundef %2, ptr noundef nonnull align 8 dereferenceable(8) %3, i64 noundef %4) #3 {
  %6 = alloca ptr, align 8
  %7 = alloca ptr, align 8
  %8 = alloca i32, align 4
  %9 = alloca ptr, align 8
  %10 = alloca i64, align 8
  store ptr %0, ptr %6, align 8, !tbaa !36
  store ptr %1, ptr %7, align 8, !tbaa !36
  store i32 %2, ptr %8, align 4, !tbaa !38
  store ptr %3, ptr %9, align 8, !tbaa !40
  store i64 %4, ptr %10, align 8, !tbaa !42
  %11 = load ptr, ptr %6, align 8, !tbaa !36
  %12 = load ptr, ptr %7, align 8, !tbaa !36
  %13 = load i32, ptr %8, align 4, !tbaa !38
  %14 = load ptr, ptr %9, align 8, !tbaa !40
  %15 = load ptr, ptr %14, align 8, !tbaa !44
  %16 = load i64, ptr %10, align 8, !tbaa !42
  %17 = call noundef ptr @_Z12save_reallocPKcS0_iPvmm(ptr noundef %11, ptr noundef %12, i32 noundef %13, ptr noundef %15, i64 noundef %16, i64 noundef 36)
  %18 = load ptr, ptr %9, align 8, !tbaa !40
  store ptr %17, ptr %18, align 8, !tbaa !44
  ret void
}

; Function Attrs: mustprogress uwtable
define void @_ZN3gmx12AtomsBuilder7reserveEii(ptr noundef nonnull align 8 dereferenceable(32) %0, i32 noundef %1, i32 noundef %2) #1 align 2 {
  %4 = alloca ptr, align 8
  %5 = alloca i32, align 4
  %6 = alloca i32, align 4
  store ptr %0, ptr %4, align 8, !tbaa !4
  store i32 %1, ptr %5, align 4, !tbaa !38
  store i32 %2, ptr %6, align 4, !tbaa !38
  %7 = load ptr, ptr %4, align 8
  %8 = getelementptr inbounds nuw %"class.gmx::AtomsBuilder", ptr %7, i32 0, i32 0
  %9 = load ptr, ptr %8, align 8, !tbaa !13
  %10 = getelementptr inbounds nuw %struct.t_atoms, ptr %9, i32 0, i32 1
  %11 = load i32, ptr %5, align 4, !tbaa !38
  %12 = sext i32 %11 to i64
  call void @_ZL15gmx_srenew_implI6t_atomEvPKcS2_iRPT_m(ptr noundef @.str, ptr noundef @.str.1, i32 noundef 91, ptr noundef nonnull align 8 dereferenceable(8) %10, i64 noundef %12)
  %13 = getelementptr inbounds nuw %"class.gmx::AtomsBuilder", ptr %7, i32 0, i32 0
  %14 = load ptr, ptr %13, align 8, !tbaa !13
  %15 = getelementptr inbounds nuw %struct.t_atoms, ptr %14, i32 0, i32 2
  %16 = load i32, ptr %5, align 4, !tbaa !38
  %17 = sext i32 %16 to i64
  call void @_ZL15gmx_srenew_implIPPcEvPKcS3_iRPT_m(ptr noundef @.str.2, ptr noundef @.str.1, i32 noundef 92, ptr noundef nonnull align 8 dereferenceable(8) %15, i64 noundef %17)
  %18 = getelementptr inbounds nuw %"class.gmx::AtomsBuilder", ptr %7, i32 0, i32 0
  %19 = load ptr, ptr %18, align 8, !tbaa !13
  %20 = getelementptr inbounds nuw %struct.t_atoms, ptr %19, i32 0, i32 6
  %21 = load i32, ptr %6, align 4, !tbaa !38
  %22 = sext i32 %21 to i64
  call void @_ZL15gmx_srenew_implI9t_resinfoEvPKcS2_iRPT_m(ptr noundef @.str.3, ptr noundef @.str.1, i32 noundef 93, ptr noundef nonnull align 8 dereferenceable(8) %20, i64 noundef %22)
  %23 = getelementptr inbounds nuw %"class.gmx::AtomsBuilder", ptr %7, i32 0, i32 0
  %24 = load ptr, ptr %23, align 8, !tbaa !13
  %25 = getelementptr inbounds nuw %struct.t_atoms, ptr %24, i32 0, i32 7
  %26 = load ptr, ptr %25, align 8, !tbaa !39
  %27 = icmp ne ptr %26, null
  br i1 %27, label %28, label %34

28:                                               ; preds = %3
  %29 = getelementptr inbounds nuw %"class.gmx::AtomsBuilder", ptr %7, i32 0, i32 0
  %30 = load ptr, ptr %29, align 8, !tbaa !13
  %31 = getelementptr inbounds nuw %struct.t_atoms, ptr %30, i32 0, i32 7
  %32 = load i32, ptr %5, align 4, !tbaa !38
  %33 = sext i32 %32 to i64
  call void @_ZL15gmx_srenew_implI9t_pdbinfoEvPKcS2_iRPT_m(ptr noundef @.str.4, ptr noundef @.str.1, i32 noundef 96, ptr noundef nonnull align 8 dereferenceable(8) %31, i64 noundef %33)
  br label %34

34:                                               ; preds = %28, %3
  %35 = load i32, ptr %5, align 4, !tbaa !38
  %36 = getelementptr inbounds nuw %"class.gmx::AtomsBuilder", ptr %7, i32 0, i32 2
  store i32 %35, ptr %36, align 8, !tbaa !26
  %37 = load i32, ptr %6, align 4, !tbaa !38
  %38 = getelementptr inbounds nuw %"class.gmx::AtomsBuilder", ptr %7, i32 0, i32 3
  store i32 %37, ptr %38, align 4, !tbaa !28
  ret void
}