; Function Attrs: mustprogress uwtable
define void @_ZN3gmx12AtomsBuilder7reserveEii(ptr noundef nonnull align 8 captures(none) dereferenceable(32) initializes((16, 24)) %0, i32 noundef %1, i32 noundef %2) local_unnamed_addr #2 align 2 {
  %4 = load ptr, ptr %0, align 8, !tbaa !4
  %5 = getelementptr inbounds nuw i8, ptr %4, i64 8
  %6 = sext i32 %1 to i64
  %7 = load ptr, ptr %5, align 8, !tbaa !33
  %8 = tail call noundef ptr @_Z12save_reallocPKcS0_iPvmm(ptr noundef nonnull @.str, ptr noundef nonnull @.str.1, i32 noundef 91, ptr noundef %7, i64 noundef range(i64 -2147483648, 2147483648) %6, i64 noundef 36)
  store ptr %8, ptr %5, align 8, !tbaa !33
  %9 = load ptr, ptr %0, align 8, !tbaa !4
  %10 = getelementptr inbounds nuw i8, ptr %9, i64 16
  %11 = load ptr, ptr %10, align 8, !tbaa !34
  %12 = tail call noundef ptr @_Z12save_reallocPKcS0_iPvmm(ptr noundef nonnull @.str.2, ptr noundef nonnull @.str.1, i32 noundef 92, ptr noundef %11, i64 noundef range(i64 -2147483648, 2147483648) %6, i64 noundef 8)
  store ptr %12, ptr %10, align 8, !tbaa !34
  %13 = load ptr, ptr %0, align 8, !tbaa !4
  %14 = getelementptr inbounds nuw i8, ptr %13, i64 48
  %15 = sext i32 %2 to i64
  %16 = load ptr, ptr %14, align 8, !tbaa !35
  %17 = tail call noundef ptr @_Z12save_reallocPKcS0_iPvmm(ptr noundef nonnull @.str.3, ptr noundef nonnull @.str.1, i32 noundef 93, ptr noundef %16, i64 noundef range(i64 -2147483648, 2147483648) %15, i64 noundef 32)
  store ptr %17, ptr %14, align 8, !tbaa !35
  %18 = load ptr, ptr %0, align 8, !tbaa !4
  %19 = getelementptr inbounds nuw i8, ptr %18, i64 56
  %20 = load ptr, ptr %19, align 8, !tbaa !36
  %.not = icmp eq ptr %20, null
  br i1 %.not, label %23, label %21

21:                                               ; preds = %3
  %22 = tail call noundef ptr @_Z12save_reallocPKcS0_iPvmm(ptr noundef nonnull @.str.4, ptr noundef nonnull @.str.1, i32 noundef 96, ptr noundef nonnull %20, i64 noundef range(i64 -2147483648, 2147483648) %6, i64 noundef 52)
  store ptr %22, ptr %19, align 8, !tbaa !37
  br label %23

23:                                               ; preds = %21, %3
  %24 = getelementptr inbounds nuw i8, ptr %0, i64 16
  store i32 %1, ptr %24, align 8, !tbaa !22
  %25 = getelementptr inbounds nuw i8, ptr %0, i64 20
  store i32 %2, ptr %25, align 4, !tbaa !24
  ret void
}